; Function Attrs: nounwind uwtable
define internal void @prte_iof_base_sink_construct(ptr noundef %0) #0 {
  %2 = getelementptr inbounds nuw i8, ptr %0, i64 404
  tail call void @PMIx_Load_procid(ptr noundef nonnull %2, ptr noundef null, i32 noundef -4) #12
  %3 = load i64, ptr getelementptr inbounds nuw (i8, ptr @prte_iof_write_event_t_class, i64 56), align 8, !tbaa !10
  %4 = tail call noalias noundef ptr @malloc(i64 noundef %3) #13
  %5 = load i32, ptr @pmix_class_init_epoch, align 4, !tbaa !3
  %6 = load i32, ptr getelementptr inbounds nuw (i8, ptr @prte_iof_write_event_t_class, i64 32), align 8, !tbaa !15
  %.not.i = icmp eq i32 %5, %6
  br i1 %.not.i, label %8, label %7

7:                                                ; preds = %1
  tail call void @pmix_class_initialize(ptr noundef nonnull @prte_iof_write_event_t_class) #12
  br label %8

8:                                                ; preds = %7, %1
  %.not22.i = icmp eq ptr %4, null
  br i1 %.not22.i, label %pmix_obj_new_tma.exit, label %9

9:                                                ; preds = %8
  %10 = tail call i32 @pthread_mutex_init(ptr noundef nonnull %4, ptr noundef null) #12
  %11 = getelementptr inbounds nuw i8, ptr %4, i64 40
  store ptr @prte_iof_write_event_t_class, ptr %11, align 8, !tbaa !16
  %12 = getelementptr inbounds nuw i8, ptr %4, i64 48
  store i32 1, ptr %12, align 8, !tbaa !19
  %13 = getelementptr inbounds nuw i8, ptr %4, i64 56
  %14 = getelementptr inbounds nuw i8, ptr %4, i64 96
  tail call void @llvm.memset.p0.i64(ptr noundef nonnull align 8 dereferenceable(32) %13, i8 0, i64 32, i1 false)
  tail call void @llvm.memset.p0.i64(ptr noundef nonnull align 8 dereferenceable(24) %14, i8 0, i64 24, i1 false)
  %15 = load ptr, ptr getelementptr inbounds nuw (i8, ptr @prte_iof_write_event_t_class, i64 40), align 8, !tbaa !20
  %16 = load ptr, ptr %15, align 8, !tbaa !21
  %.not6.i.i = icmp eq ptr %16, null
  br i1 %.not6.i.i, label %pmix_obj_new_tma.exit, label %.lr.ph.i.i

.lr.ph.i.i:                                       ; preds = %9, %.lr.ph.i.i
  %17 = phi ptr [ %19, %.lr.ph.i.i ], [ %16, %9 ]
  %.07.i.i = phi ptr [ %18, %.lr.ph.i.i ], [ %15, %9 ]
  tail call void %17(ptr noundef nonnull %4) #12
  %18 = getelementptr inbounds nuw i8, ptr %.07.i.i, i64 8
  %19 = load ptr, ptr %18, align 8, !tbaa !21
  %.not.i.i = icmp eq ptr %19, null
  br i1 %.not.i.i, label %pmix_obj_new_tma.exit, label %.lr.ph.i.i, !llvm.loop !22

pmix_obj_new_tma.exit:                            ; preds = %.lr.ph.i.i, %8, %9
  %20 = getelementptr inbounds nuw i8, ptr %0, i64 672
  store ptr %4, ptr %20, align 8, !tbaa !38
  %21 = getelementptr inbounds nuw i8, ptr %0, i64 680
  store i8 0, ptr %21, align 8, !tbaa !42
  %22 = getelementptr inbounds nuw i8, ptr %0, i64 681
  store i8 0, ptr %22, align 1, !tbaa !43
  %23 = getelementptr inbounds nuw i8, ptr %0, i64 682
  store i8 0, ptr %23, align 2, !tbaa !44
  ret void
}